target datalayout = "e-m:e-p270:32:32-p271:32:32-p272:64:64-i64:64-i128:128-f80:128-n8:16:32:64-S128"
target triple = "x86_64-pc-linux-gnu"

%struct._longobject = type { %struct._object, %struct._PyLongValue }
%struct._object = type { %union.anon, ptr }
%union.anon = type { i64 }
%struct._PyLongValue = type { i64, [1 x i32] }
%struct.anon = type { i32, i32 }

@_Py_TrueStruct = external global %struct._longobject, align 8
@_Py_NoneStruct = external global %struct._object, align 8
@.str.28 = private unnamed_addr constant [38 x i8] c"../cpython/Modules/_testcapi/object.c\00", align 1
@_Py_FalseStruct = external global %struct._longobject, align 8
@.str.44 = private unnamed_addr constant [16 x i8] c"Py_Is(obj, obj)\00", align 1
@__PRETTY_FUNCTION__.test_py_is_macros = private unnamed_addr constant [52 x i8] c"PyObject *test_py_is_macros(PyObject *, PyObject *)\00", align 1
@.str.45 = private unnamed_addr constant [20 x i8] c"!Py_Is(obj, o_none)\00", align 1
@.str.46 = private unnamed_addr constant [22 x i8] c"Py_Is(o_none, o_none)\00", align 1
@.str.47 = private unnamed_addr constant [22 x i8] c"Py_Is(o_true, o_true)\00", align 1
@.str.48 = private unnamed_addr constant [24 x i8] c"!Py_Is(o_false, o_true)\00", align 1
@.str.49 = private unnamed_addr constant [20 x i8] c"!Py_Is(obj, o_true)\00", align 1
@.str.50 = private unnamed_addr constant [24 x i8] c"Py_Is(o_false, o_false)\00", align 1
@.str.51 = private unnamed_addr constant [24 x i8] c"!Py_Is(o_true, o_false)\00", align 1
@.str.52 = private unnamed_addr constant [21 x i8] c"!Py_Is(obj, o_false)\00", align 1

; Function Attrs: alwaysinline nounwind uwtable
define internal i32 @_Py_IsImmortal(ptr noundef %0) #4 {
  %2 = alloca ptr, align 8
  store ptr %0, ptr %2, align 8, !tbaa !3
  %3 = load ptr, ptr %2, align 8, !tbaa !3
  %4 = getelementptr inbounds nuw %struct._object, ptr %3, i32 0, i32 0
  %5 = getelementptr inbounds nuw %struct.anon, ptr %4, i32 0, i32 0
  %6 = load i32, ptr %5, align 8, !tbaa !16
  %7 = icmp slt i32 %6, 0
  %8 = zext i1 %7 to i32
  ret i32 %8
}

; Function Attrs: alwaysinline nounwind uwtable
define internal void @Py_DECREF(ptr noundef %0) #4 {
  %2 = alloca ptr, align 8
  store ptr %0, ptr %2, align 8, !tbaa !3
  %3 = load ptr, ptr %2, align 8, !tbaa !3
  %4 = call i32 @_Py_IsImmortal(ptr noundef %3)
  %5 = icmp ne i32 %4, 0
  br i1 %5, label %6, label %7

6:                                                ; preds = %1
  br label %16

7:                                                ; preds = %1
  %8 = load ptr, ptr %2, align 8, !tbaa !3
  %9 = getelementptr inbounds nuw %struct._object, ptr %8, i32 0, i32 0
  %10 = getelementptr inbounds nuw %struct.anon, ptr %9, i32 0, i32 0
  %11 = load i32, ptr %10, align 8, !tbaa !16
  %12 = add i32 %11, -1
  store i32 %12, ptr %10, align 8, !tbaa !16
  %13 = icmp eq i32 %12, 0
  br i1 %13, label %14, label %16

14:                                               ; preds = %7
  %15 = load ptr, ptr %2, align 8, !tbaa !3
  call void @_Py_Dealloc(ptr noundef %15)
  br label %16

16:                                               ; preds = %6, %14, %7
  ret void
}

; Function Attrs: nounwind uwtable
define internal ptr @test_py_is_macros(ptr noundef %0, ptr noundef %1) #0 {
  %3 = alloca ptr, align 8
  %4 = alloca ptr, align 8
  %5 = alloca ptr, align 8
  %6 = alloca ptr, align 8
  %7 = alloca ptr, align 8
  %8 = alloca ptr, align 8
  %9 = alloca ptr, align 8
  %10 = alloca i32, align 4
  store ptr %0, ptr %4, align 8, !tbaa !3
  store ptr %1, ptr %5, align 8, !tbaa !3
  br label %11

11:                                               ; preds = %2
  call void @llvm.lifetime.start.p0(i64 8, ptr %6) #6
  store ptr @_Py_NoneStruct, ptr %6, align 8, !tbaa !3
  call void @llvm.lifetime.start.p0(i64 8, ptr %7) #6
  store ptr @_Py_TrueStruct, ptr %7, align 8, !tbaa !3
  call void @llvm.lifetime.start.p0(i64 8, ptr %8) #6
  store ptr @_Py_FalseStruct, ptr %8, align 8, !tbaa !3
  call void @llvm.lifetime.start.p0(i64 8, ptr %9) #6
  %12 = call ptr @PyList_New(i64 noundef 0)
  store ptr %12, ptr %9, align 8, !tbaa !3
  %13 = load ptr, ptr %9, align 8, !tbaa !3
  %14 = icmp eq ptr %13, null
  br i1 %14, label %15, label %16

15:                                               ; preds = %11
  store ptr null, ptr %3, align 8
  store i32 1, ptr %10, align 4
  br label %88

16:                                               ; preds = %11
  %17 = load ptr, ptr %9, align 8, !tbaa !3
  %18 = load ptr, ptr %9, align 8, !tbaa !3
  %19 = icmp eq ptr %17, %18
  br i1 %19, label %20, label %21

20:                                               ; preds = %16
  br label %23

21:                                               ; preds = %16
  call void @__assert_fail(ptr noundef @.str.44, ptr noundef @.str.28, i32 noundef 453, ptr noundef @__PRETTY_FUNCTION__.test_py_is_macros) #7
  unreachable

22:                                               ; No predecessors!
  br label %23

23:                                               ; preds = %22, %20
  %24 = load ptr, ptr %9, align 8, !tbaa !3
  %25 = load ptr, ptr %6, align 8, !tbaa !3
  %26 = icmp eq ptr %24, %25
  br i1 %26, label %28, label %27

27:                                               ; preds = %23
  br label %30

28:                                               ; preds = %23
  call void @__assert_fail(ptr noundef @.str.45, ptr noundef @.str.28, i32 noundef 453, ptr noundef @__PRETTY_FUNCTION__.test_py_is_macros) #7
  unreachable

29:                                               ; No predecessors!
  br label %30

30:                                               ; preds = %29, %27
  %31 = load ptr, ptr %6, align 8, !tbaa !3
  %32 = load ptr, ptr %6, align 8, !tbaa !3
  %33 = icmp eq ptr %31, %32
  br i1 %33, label %34, label %35

34:                                               ; preds = %30
  br label %37

35:                                               ; preds = %30
  call void @__assert_fail(ptr noundef @.str.46, ptr noundef @.str.28, i32 noundef 453, ptr noundef @__PRETTY_FUNCTION__.test_py_is_macros) #7
  unreachable

36:                                               ; No predecessors!
  br label %37

37:                                               ; preds = %36, %34
  %38 = load ptr, ptr %9, align 8, !tbaa !3
  %39 = load ptr, ptr %6, align 8, !tbaa !3
  %40 = icmp eq ptr %38, %39
  br i1 %40, label %42, label %41

41:                                               ; preds = %37
  br label %44

42:                                               ; preds = %37
  call void @__assert_fail(ptr noundef @.str.45, ptr noundef @.str.28, i32 noundef 453, ptr noundef @__PRETTY_FUNCTION__.test_py_is_macros) #7
  unreachable

43:                                               ; No predecessors!
  br label %44

44:                                               ; preds = %43, %41
  %45 = load ptr, ptr %7, align 8, !tbaa !3
  %46 = load ptr, ptr %7, align 8, !tbaa !3
  %47 = icmp eq ptr %45, %46
  br i1 %47, label %48, label %49

48:                                               ; preds = %44
  br label %51

49:                                               ; preds = %44
  call void @__assert_fail(ptr noundef @.str.47, ptr noundef @.str.28, i32 noundef 453, ptr noundef @__PRETTY_FUNCTION__.test_py_is_macros) #7
  unreachable

50:                                               ; No predecessors!
  br label %51

51:                                               ; preds = %50, %48
  %52 = load ptr, ptr %8, align 8, !tbaa !3
  %53 = load ptr, ptr %7, align 8, !tbaa !3
  %54 = icmp eq ptr %52, %53
  br i1 %54, label %56, label %55

55:                                               ; preds = %51
  br label %58

56:                                               ; preds = %51
  call void @__assert_fail(ptr noundef @.str.48, ptr noundef @.str.28, i32 noundef 453, ptr noundef @__PRETTY_FUNCTION__.test_py_is_macros) #7
  unreachable

57:                                               ; No predecessors!
  br label %58

58:                                               ; preds = %57, %55
  %59 = load ptr, ptr %9, align 8, !tbaa !3
  %60 = load ptr, ptr %7, align 8, !tbaa !3
  %61 = icmp eq ptr %59, %60
  br i1 %61, label %63, label %62

62:                                               ; preds = %58
  br label %65

63:                                               ; preds = %58
  call void @__assert_fail(ptr noundef @.str.49, ptr noundef @.str.28, i32 noundef 453, ptr noundef @__PRETTY_FUNCTION__.test_py_is_macros) #7
  unreachable

64:                                               ; No predecessors!
  br label %65

65:                                               ; preds = %64, %62
  %66 = load ptr, ptr %8, align 8, !tbaa !3
  %67 = load ptr, ptr %8, align 8, !tbaa !3
  %68 = icmp eq ptr %66, %67
  br i1 %68, label %69, label %70

69:                                               ; preds = %65
  br label %72

70:                                               ; preds = %65
  call void @__assert_fail(ptr noundef @.str.50, ptr noundef @.str.28, i32 noundef 453, ptr noundef @__PRETTY_FUNCTION__.test_py_is_macros) #7
  unreachable

71:                                               ; No predecessors!
  br label %72

72:                                               ; preds = %71, %69
  %73 = load ptr, ptr %7, align 8, !tbaa !3
  %74 = load ptr, ptr %8, align 8, !tbaa !3
  %75 = icmp eq ptr %73, %74
  br i1 %75, label %77, label %76

76:                                               ; preds = %72
  br label %79

77:                                               ; preds = %72
  call void @__assert_fail(ptr noundef @.str.51, ptr noundef @.str.28, i32 noundef 453, ptr noundef @__PRETTY_FUNCTION__.test_py_is_macros) #7
  unreachable

78:                                               ; No predecessors!
  br label %79

79:                                               ; preds = %78, %76
  %80 = load ptr, ptr %9, align 8, !tbaa !3
  %81 = load ptr, ptr %8, align 8, !tbaa !3
  %82 = icmp eq ptr %80, %81
  br i1 %82, label %84, label %83

83:                                               ; preds = %79
  br label %86

84:                                               ; preds = %79
  call void @__assert_fail(ptr noundef @.str.52, ptr noundef @.str.28, i32 noundef 453, ptr noundef @__PRETTY_FUNCTION__.test_py_is_macros) #7
  unreachable

85:                                               ; No predecessors!
  br label %86

86:                                               ; preds = %85, %83
  %87 = load ptr, ptr %9, align 8, !tbaa !3
  call void @Py_DECREF(ptr noundef %87)
  store ptr @_Py_NoneStruct, ptr %3, align 8
  store i32 1, ptr %10, align 4
  br label %88

88:                                               ; preds = %86, %15
  call void @llvm.lifetime.end.p0(i64 8, ptr %9) #6
  call void @llvm.lifetime.end.p0(i64 8, ptr %8) #6
  call void @llvm.lifetime.end.p0(i64 8, ptr %7) #6
  call void @llvm.lifetime.end.p0(i64 8, ptr %6) #6
  br label %89

89:                                               ; preds = %88
  %90 = load ptr, ptr %3, align 8
  ret ptr %90
}