; Function Attrs: nounwind uwtable
define internal noundef ptr @test_py_is_macros(ptr readnone captures(none) %0, ptr readnone captures(none) %1) #0 {
  %3 = tail call ptr @PyList_New(i64 noundef 0) #5
  %4 = icmp eq ptr %3, null
  br i1 %4, label %Py_DECREF.exit, label %5

5:                                                ; preds = %2
  %6 = icmp eq ptr %3, @_Py_NoneStruct
  br i1 %6, label %7, label %8

7:                                                ; preds = %5
  tail call void @__assert_fail(ptr noundef nonnull @.str.45, ptr noundef nonnull @.str.28, i32 noundef 453, ptr noundef nonnull @__PRETTY_FUNCTION__.test_py_is_macros) #6
  unreachable

8:                                                ; preds = %5
  %9 = icmp eq ptr %3, @_Py_TrueStruct
  br i1 %9, label %10, label %11

10:                                               ; preds = %8
  tail call void @__assert_fail(ptr noundef nonnull @.str.49, ptr noundef nonnull @.str.28, i32 noundef 453, ptr noundef nonnull @__PRETTY_FUNCTION__.test_py_is_macros) #6
  unreachable

11:                                               ; preds = %8
  %12 = icmp eq ptr %3, @_Py_FalseStruct
  br i1 %12, label %13, label %14

13:                                               ; preds = %11
  tail call void @__assert_fail(ptr noundef nonnull @.str.52, ptr noundef nonnull @.str.28, i32 noundef 453, ptr noundef nonnull @__PRETTY_FUNCTION__.test_py_is_macros) #6
  unreachable

14:                                               ; preds = %11
  %15 = load i32, ptr %3, align 8, !tbaa !8
  %.not.i = icmp sgt i32 %15, -1
  br i1 %.not.i, label %16, label %Py_DECREF.exit

16:                                               ; preds = %14
  %17 = add nsw i32 %15, -1
  store i32 %17, ptr %3, align 8, !tbaa !8
  %18 = icmp eq i32 %17, 0
  br i1 %18, label %19, label %Py_DECREF.exit

19:                                               ; preds = %16
  tail call void @_Py_Dealloc(ptr noundef nonnull %3) #5
  br label %Py_DECREF.exit

Py_DECREF.exit:                                   ; preds = %19, %16, %14, %2
  %.0 = phi ptr [ null, %2 ], [ @_Py_NoneStruct, %14 ], [ @_Py_NoneStruct, %16 ], [ @_Py_NoneStruct, %19 ]
  ret ptr %.0
}